target datalayout = "e-m:e-p270:32:32-p271:32:32-p272:64:64-i64:64-i128:128-f80:128-n8:16:32:64-S128"
target triple = "x86_64-pc-linux-gnu"

@j2d_glVertex2f = external global ptr, align 8

; Function Attrs: nounwind uwtable
define hidden void @OGLRenderer_DrawLine(ptr noundef %0, i32 noundef %1, i32 noundef %2, i32 noundef %3, i32 noundef %4) #0 {
  %6 = alloca ptr, align 8
  %7 = alloca i32, align 4
  %8 = alloca i32, align 4
  %9 = alloca i32, align 4
  %10 = alloca i32, align 4
  %11 = alloca float, align 4
  %12 = alloca float, align 4
  %13 = alloca float, align 4
  %14 = alloca float, align 4
  %15 = alloca float, align 4
  %16 = alloca float, align 4
  %17 = alloca float, align 4
  %18 = alloca float, align 4
  %19 = alloca float, align 4
  %20 = alloca float, align 4
  %21 = alloca float, align 4
  %22 = alloca float, align 4
  store ptr %0, ptr %6, align 8
  store i32 %1, ptr %7, align 4
  store i32 %2, ptr %8, align 4
  store i32 %3, ptr %9, align 4
  store i32 %4, ptr %10, align 4
  %23 = load ptr, ptr %6, align 8
  %24 = icmp eq ptr %23, null
  br i1 %24, label %25, label %26

25:                                               ; preds = %5
  br label %129

26:                                               ; preds = %5
  br label %27

27:                                               ; preds = %26
  br label %28

28:                                               ; preds = %27
  br label %29

29:                                               ; preds = %28
  call void @OGLRenderQueue_CheckPreviousOp(i32 noundef 1)
  %30 = load i32, ptr %8, align 4
  %31 = load i32, ptr %10, align 4
  %32 = icmp eq i32 %30, %31
  br i1 %32, label %33, label %57

33:                                               ; preds = %29
  %34 = load i32, ptr %7, align 4
  %35 = sitofp i32 %34 to float
  store float %35, ptr %11, align 4
  %36 = load i32, ptr %9, align 4
  %37 = sitofp i32 %36 to float
  store float %37, ptr %12, align 4
  %38 = load i32, ptr %8, align 4
  %39 = sitofp i32 %38 to float
  %40 = fadd float %39, 0x3FC99999A0000000
  store float %40, ptr %13, align 4
  %41 = load i32, ptr %7, align 4
  %42 = load i32, ptr %9, align 4
  %43 = icmp sgt i32 %41, %42
  br i1 %43, label %44, label %48

44:                                               ; preds = %33
  %45 = load float, ptr %11, align 4
  store float %45, ptr %14, align 4
  %46 = load float, ptr %12, align 4
  store float %46, ptr %11, align 4
  %47 = load float, ptr %14, align 4
  store float %47, ptr %12, align 4
  br label %48

48:                                               ; preds = %44, %33
  %49 = load ptr, ptr @j2d_glVertex2f, align 8
  %50 = load float, ptr %11, align 4
  %51 = fadd float %50, 0x3FC99999A0000000
  %52 = load float, ptr %13, align 4
  call void %49(float noundef %51, float noundef %52)
  %53 = load ptr, ptr @j2d_glVertex2f, align 8
  %54 = load float, ptr %12, align 4
  %55 = fadd float %54, 0x3FF3333340000000
  %56 = load float, ptr %13, align 4
  call void %53(float noundef %55, float noundef %56)
  br label %129

57:                                               ; preds = %29
  %58 = load i32, ptr %7, align 4
  %59 = load i32, ptr %9, align 4
  %60 = icmp eq i32 %58, %59
  br i1 %60, label %61, label %85

61:                                               ; preds = %57
  %62 = load i32, ptr %7, align 4
  %63 = sitofp i32 %62 to float
  %64 = fadd float %63, 0x3FC99999A0000000
  store float %64, ptr %15, align 4
  %65 = load i32, ptr %8, align 4
  %66 = sitofp i32 %65 to float
  store float %66, ptr %16, align 4
  %67 = load i32, ptr %10, align 4
  %68 = sitofp i32 %67 to float
  store float %68, ptr %17, align 4
  %69 = load i32, ptr %8, align 4
  %70 = load i32, ptr %10, align 4
  %71 = icmp sgt i32 %69, %70
  br i1 %71, label %72, label %76

72:                                               ; preds = %61
  %73 = load float, ptr %16, align 4
  store float %73, ptr %18, align 4
  %74 = load float, ptr %17, align 4
  store float %74, ptr %16, align 4
  %75 = load float, ptr %18, align 4
  store float %75, ptr %17, align 4
  br label %76

76:                                               ; preds = %72, %61
  %77 = load ptr, ptr @j2d_glVertex2f, align 8
  %78 = load float, ptr %15, align 4
  %79 = load float, ptr %16, align 4
  %80 = fadd float %79, 0x3FC99999A0000000
  call void %77(float noundef %78, float noundef %80)
  %81 = load ptr, ptr @j2d_glVertex2f, align 8
  %82 = load float, ptr %15, align 4
  %83 = load float, ptr %17, align 4
  %84 = fadd float %83, 0x3FF3333340000000
  call void %81(float noundef %82, float noundef %84)
  br label %128

85:                                               ; preds = %57
  %86 = load i32, ptr %7, align 4
  %87 = sitofp i32 %86 to float
  store float %87, ptr %19, align 4
  %88 = load i32, ptr %8, align 4
  %89 = sitofp i32 %88 to float
  store float %89, ptr %20, align 4
  %90 = load i32, ptr %9, align 4
  %91 = sitofp i32 %90 to float
  store float %91, ptr %21, align 4
  %92 = load i32, ptr %10, align 4
  %93 = sitofp i32 %92 to float
  store float %93, ptr %22, align 4
  %94 = load i32, ptr %7, align 4
  %95 = load i32, ptr %9, align 4
  %96 = icmp slt i32 %94, %95
  br i1 %96, label %97, label %102

97:                                               ; preds = %85
  %98 = load float, ptr %19, align 4
  %99 = fadd float %98, 0x3FC99999A0000000
  store float %99, ptr %19, align 4
  %100 = load float, ptr %21, align 4
  %101 = fadd float %100, 1.000000e+00
  store float %101, ptr %21, align 4
  br label %107

102:                                              ; preds = %85
  %103 = load float, ptr %19, align 4
  %104 = fadd float %103, 0x3FE99999A0000000
  store float %104, ptr %19, align 4
  %105 = load float, ptr %21, align 4
  %106 = fsub float %105, 0x3FC99999A0000000
  store float %106, ptr %21, align 4
  br label %107

107:                                              ; preds = %102, %97
  %108 = load i32, ptr %8, align 4
  %109 = load i32, ptr %10, align 4
  %110 = icmp slt i32 %108, %109
  br i1 %110, label %111, label %116

111:                                              ; preds = %107
  %112 = load float, ptr %20, align 4
  %113 = fadd float %112, 0x3FC99999A0000000
  store float %113, ptr %20, align 4
  %114 = load float, ptr %22, align 4
  %115 = fadd float %114, 1.000000e+00
  store float %115, ptr %22, align 4
  br label %121

116:                                              ; preds = %107
  %117 = load float, ptr %20, align 4
  %118 = fadd float %117, 0x3FE99999A0000000
  store float %118, ptr %20, align 4
  %119 = load float, ptr %22, align 4
  %120 = fsub float %119, 0x3FC99999A0000000
  store float %120, ptr %22, align 4
  br label %121

121:                                              ; preds = %116, %111
  %122 = load ptr, ptr @j2d_glVertex2f, align 8
  %123 = load float, ptr %19, align 4
  %124 = load float, ptr %20, align 4
  call void %122(float noundef %123, float noundef %124)
  %125 = load ptr, ptr @j2d_glVertex2f, align 8
  %126 = load float, ptr %21, align 4
  %127 = load float, ptr %22, align 4
  call void %125(float noundef %126, float noundef %127)
  br label %128

128:                                              ; preds = %121, %76
  br label %129

129:                                              ; preds = %128, %48, %25
  ret void
}