; Function Attrs: nounwind uwtable
define hidden void @OGLRenderer_DrawLine(ptr noundef readnone %0, i32 noundef %1, i32 noundef %2, i32 noundef %3, i32 noundef %4) local_unnamed_addr #0 {
  %6 = icmp eq ptr %0, null
  br i1 %6, label %33, label %7

7:                                                ; preds = %5
  tail call void @OGLRenderQueue_CheckPreviousOp(i32 noundef 1) #4
  %8 = icmp eq i32 %2, %4
  br i1 %8, label %9, label %16

9:                                                ; preds = %7
  %10 = sitofp i32 %2 to float
  %11 = fadd float %10, 0x3FC99999A0000000
  %.05461 = tail call i32 @llvm.smax.i32(i32 %1, i32 %3)
  %.054 = sitofp i32 %.05461 to float
  %.051.v = tail call i32 @llvm.smin.i32(i32 %1, i32 %3)
  %.051 = sitofp i32 %.051.v to float
  %12 = load ptr, ptr @j2d_glVertex2f, align 8
  %13 = fadd float %.051, 0x3FC99999A0000000
  tail call void %12(float noundef %13, float noundef %11) #4
  %14 = load ptr, ptr @j2d_glVertex2f, align 8
  %15 = fadd float %.054, 0x3FF3333340000000
  tail call void %14(float noundef %15, float noundef %11) #4
  br label %33

16:                                               ; preds = %7
  %17 = icmp eq i32 %1, %3
  %18 = sitofp i32 %1 to float
  br i1 %17, label %19, label %25

19:                                               ; preds = %16
  %20 = fadd float %18, 0x3FC99999A0000000
  %.05360 = tail call i32 @llvm.smin.i32(i32 %2, i32 %4)
  %.053 = sitofp i32 %.05360 to float
  %.052.v = tail call i32 @llvm.smax.i32(i32 %2, i32 %4)
  %.052 = sitofp i32 %.052.v to float
  %21 = load ptr, ptr @j2d_glVertex2f, align 8
  %22 = fadd float %.053, 0x3FC99999A0000000
  tail call void %21(float noundef %20, float noundef %22) #4
  %23 = load ptr, ptr @j2d_glVertex2f, align 8
  %24 = fadd float %.052, 0x3FF3333340000000
  tail call void %23(float noundef %20, float noundef %24) #4
  br label %33

25:                                               ; preds = %16
  %26 = sitofp i32 %2 to float
  %27 = sitofp i32 %3 to float
  %28 = sitofp i32 %4 to float
  %29 = icmp slt i32 %1, %3
  %.050.v = select i1 %29, float 0x3FC99999A0000000, float 0x3FE99999A0000000
  %.050 = fadd float %.050.v, %18
  %.048.v = select i1 %29, float 1.000000e+00, float 0xBFC99999A0000000
  %.048 = fadd float %.048.v, %27
  %30 = icmp slt i32 %2, %4
  %.049.v = select i1 %30, float 0x3FC99999A0000000, float 0x3FE99999A0000000
  %.049 = fadd float %.049.v, %26
  %.0.v = select i1 %30, float 1.000000e+00, float 0xBFC99999A0000000
  %.0 = fadd float %.0.v, %28
  %31 = load ptr, ptr @j2d_glVertex2f, align 8
  tail call void %31(float noundef %.050, float noundef %.049) #4
  %32 = load ptr, ptr @j2d_glVertex2f, align 8
  tail call void %32(float noundef %.048, float noundef %.0) #4
  br label %33

33:                                               ; preds = %19, %25, %5, %9
  ret void
}